target datalayout = "e-m:e-p270:32:32-p271:32:32-p272:64:64-i64:64-i128:128-f80:128-n8:16:32:64-S128"
target triple = "x86_64-pc-linux-gnu"

@self_test_rng.state = internal global i32 42, align 4

; Function Attrs: nounwind uwtable
define internal i32 @self_test_rng(ptr noundef %0, ptr noundef %1, i64 noundef %2) #0 {
  %4 = alloca ptr, align 8
  %5 = alloca ptr, align 8
  %6 = alloca i64, align 8
  %7 = alloca i64, align 8
  store ptr %0, ptr %4, align 8, !tbaa !30
  store ptr %1, ptr %5, align 8, !tbaa !20
  store i64 %2, ptr %6, align 8, !tbaa !22
  call void @llvm.lifetime.start.p0(i64 8, ptr %7) #9
  store i64 0, ptr %7, align 8, !tbaa !22
  br label %8

8:                                                ; preds = %22, %3
  %9 = load i64, ptr %7, align 8, !tbaa !22
  %10 = load i64, ptr %6, align 8, !tbaa !22
  %11 = icmp ult i64 %9, %10
  br i1 %11, label %13, label %12

12:                                               ; preds = %8
  call void @llvm.lifetime.end.p0(i64 8, ptr %7) #9
  br label %25

13:                                               ; preds = %8
  %14 = load i32, ptr @self_test_rng.state, align 4, !tbaa !19
  %15 = mul i32 %14, 1664525
  %16 = add i32 %15, 1013904223
  store i32 %16, ptr @self_test_rng.state, align 4, !tbaa !19
  %17 = load i32, ptr @self_test_rng.state, align 4, !tbaa !19
  %18 = trunc i32 %17 to i8
  %19 = load ptr, ptr %5, align 8, !tbaa !20
  %20 = load i64, ptr %7, align 8, !tbaa !22
  %21 = getelementptr inbounds nuw i8, ptr %19, i64 %20
  store i8 %18, ptr %21, align 1, !tbaa !38
  br label %22

22:                                               ; preds = %13
  %23 = load i64, ptr %7, align 8, !tbaa !22
  %24 = add i64 %23, 1
  store i64 %24, ptr %7, align 8, !tbaa !22
  br label %8, !llvm.loop !42

25:                                               ; preds = %12
  ret i32 0
}